; Function Attrs: mustprogress uwtable
define void @_ZNK3nix8fetchers5Input5toURLEv(ptr dead_on_unwind noalias writable sret(%"struct.nix::ParsedURL") align 8 %0, ptr noundef nonnull align 8 dereferenceable(104) %1) local_unnamed_addr #5 align 2 personality ptr @__gxx_personality_v0 {
  %3 = alloca %"class.std::__cxx11::basic_string", align 8
  %4 = alloca %"class.std::allocator.9", align 1
  %5 = alloca %"class.nlohmann::basic_json", align 8
  %6 = load ptr, ptr %1, align 8
  %.not = icmp eq ptr %6, null
  br i1 %.not, label %7, label %20

7:                                                ; preds = %2
  %8 = tail call ptr @__cxa_allocate_exception(i64 376) #27
  call void @_ZNSaIcEC1Ev(ptr noundef nonnull align 1 dereferenceable(1) %4) #27
  invoke void @_ZNSt7__cxx1112basic_stringIcSt11char_traitsIcESaIcEEC2IS3_EEPKcRKS3_(ptr noundef nonnull align 8 dereferenceable(32) %3, ptr noundef nonnull @.str.10, ptr noundef nonnull align 1 dereferenceable(1) %4)
          to label %9 unwind label %.thread

9:                                                ; preds = %7
  %10 = getelementptr inbounds i8, ptr %1, i64 16
  invoke void @_ZN3nix8fetchers11attrsToJSONERKSt3mapINSt7__cxx1112basic_stringIcSt11char_traitsIcESaIcEEESt7variantIJS7_mNS_8ExplicitIbEEEESt4lessIS7_ESaISt4pairIKS7_SB_EEE(ptr dead_on_unwind nonnull writable sret(%"class.nlohmann::basic_json") align 8 %5, ptr noundef nonnull align 8 dereferenceable(48) %10)
          to label %11 unwind label %14

11:                                               ; preds = %9
  invoke void @_ZN3nix5ErrorCI2NS_9BaseErrorEIJN8nlohmann10basic_jsonISt3mapSt6vectorNSt7__cxx1112basic_stringIcSt11char_traitsIcESaIcEEEblmdSaNS1_14adl_serializerES4_IhSaIhEEEEEEERKSA_DpRKT_(ptr noundef nonnull align 8 dereferenceable(376) %8, ptr noundef nonnull align 8 dereferenceable(32) %3, ptr noundef nonnull align 8 dereferenceable(16) %5)
          to label %12 unwind label %16

12:                                               ; preds = %11
  invoke void @__cxa_throw(ptr nonnull %8, ptr nonnull @_ZTIN3nix5ErrorE, ptr nonnull @_ZN3nix5ErrorD2Ev) #31
          to label %25 unwind label %16

.thread:                                          ; preds = %7
  %13 = landingpad { ptr, i32 }
          cleanup
  call void @_ZNSaIcED1Ev(ptr noundef nonnull align 1 dereferenceable(1) %4) #27
  br label %19

14:                                               ; preds = %9
  %15 = landingpad { ptr, i32 }
          cleanup
  br label %18

16:                                               ; preds = %12, %11
  %.0 = phi i1 [ false, %12 ], [ true, %11 ]
  %17 = landingpad { ptr, i32 }
          cleanup
  call void @_ZN8nlohmann10basic_jsonISt3mapSt6vectorNSt7__cxx1112basic_stringIcSt11char_traitsIcESaIcEEEblmdSaNS_14adl_serializerES2_IhSaIhEEED2Ev(ptr noundef nonnull align 8 dereferenceable(16) %5) #27
  br label %18

18:                                               ; preds = %14, %16
  %.pn = phi { ptr, i32 } [ %17, %16 ], [ %15, %14 ]
  %.1 = phi i1 [ %.0, %16 ], [ true, %14 ]
  call void @_ZNSt7__cxx1112basic_stringIcSt11char_traitsIcESaIcEED2Ev(ptr noundef nonnull align 8 dereferenceable(32) %3) #27
  call void @_ZNSaIcED1Ev(ptr noundef nonnull align 1 dereferenceable(1) %4) #27
  br i1 %.1, label %19, label %24

19:                                               ; preds = %.thread, %18
  %.pn.pn12 = phi { ptr, i32 } [ %13, %.thread ], [ %.pn, %18 ]
  call void @__cxa_free_exception(ptr %8) #27
  br label %24

20:                                               ; preds = %2
  %21 = load ptr, ptr %6, align 8
  %22 = getelementptr inbounds i8, ptr %21, i64 48
  %23 = load ptr, ptr %22, align 8
  tail call void %23(ptr dead_on_unwind writable sret(%"struct.nix::ParsedURL") align 8 %0, ptr noundef nonnull align 8 dereferenceable(8) %6, ptr noundef nonnull align 8 dereferenceable(104) %1)
  ret void

24:                                               ; preds = %18, %19
  %.pn.pn11 = phi { ptr, i32 } [ %.pn, %18 ], [ %.pn.pn12, %19 ]
  resume { ptr, i32 } %.pn.pn11

25:                                               ; preds = %12
  unreachable
}